target datalayout = "e-m:e-p270:32:32-p271:32:32-p272:64:64-i64:64-i128:128-f80:128-n8:16:32:64-S128"
target triple = "x86_64-pc-linux-gnu"

; Function Attrs: nounwind uwtable
define internal void @intra_pred_dc_128(ptr noundef %0, ptr noundef %1, ptr noundef %2, i64 noundef %3) #0 {
  %5 = alloca ptr, align 8
  %6 = alloca ptr, align 8
  %7 = alloca ptr, align 8
  %8 = alloca i64, align 8
  %9 = alloca i32, align 4
  %10 = alloca i64, align 8
  store ptr %0, ptr %5, align 8, !tbaa !57
  store ptr %1, ptr %6, align 8, !tbaa !57
  store ptr %2, ptr %7, align 8, !tbaa !57
  store i64 %3, ptr %8, align 8, !tbaa !107
  call void @llvm.lifetime.start.p0(i64 4, ptr %9) #10
  call void @llvm.lifetime.start.p0(i64 8, ptr %10) #10
  store i64 -9187201950435737472, ptr %10, align 8, !tbaa !107
  store i32 0, ptr %9, align 4, !tbaa !9
  br label %11

11:                                               ; preds = %22, %4
  %12 = load i32, ptr %9, align 4, !tbaa !9
  %13 = icmp slt i32 %12, 8
  br i1 %13, label %14, label %25

14:                                               ; preds = %11
  %15 = load i64, ptr %10, align 8, !tbaa !107
  %16 = load ptr, ptr %5, align 8, !tbaa !57
  %17 = load i32, ptr %9, align 4, !tbaa !9
  %18 = sext i32 %17 to i64
  %19 = load i64, ptr %8, align 8, !tbaa !107
  %20 = mul nsw i64 %18, %19
  %21 = getelementptr inbounds i8, ptr %16, i64 %20
  store i64 %15, ptr %21, align 8, !tbaa !107
  br label %22

22:                                               ; preds = %14
  %23 = load i32, ptr %9, align 4, !tbaa !9
  %24 = add nsw i32 %23, 1
  store i32 %24, ptr %9, align 4, !tbaa !9
  br label %11, !llvm.loop !120

25:                                               ; preds = %11
  call void @llvm.lifetime.end.p0(i64 8, ptr %10) #10
  call void @llvm.lifetime.end.p0(i64 4, ptr %9) #10
  ret void
}