; Function Attrs: nofree norecurse nosync nounwind memory(argmem: write) uwtable
define internal void @intra_pred_dc_128(ptr noundef writeonly captures(none) %0, ptr readnone captures(none) %1, ptr readnone captures(none) %2, i64 noundef %3) #10 {
  br label %5

5:                                                ; preds = %4, %5
  %indvars.iv = phi i64 [ 0, %4 ], [ %indvars.iv.next, %5 ]
  %6 = mul nsw i64 %3, %indvars.iv
  %7 = getelementptr inbounds i8, ptr %0, i64 %6
  store i64 -9187201950435737472, ptr %7, align 8, !tbaa !95
  %indvars.iv.next = add nuw nsw i64 %indvars.iv, 1
  %exitcond.not = icmp eq i64 %indvars.iv.next, 8
  br i1 %exitcond.not, label %8, label %5, !llvm.loop !108

8:                                                ; preds = %5
  ret void
}